target datalayout = "e-m:e-p270:32:32-p271:32:32-p272:64:64-i64:64-i128:128-f80:128-n8:16:32:64-S128"
target triple = "x86_64-pc-linux-gnu"

%struct.strbuf = type { i64, i64, ptr }
%struct.string_list = type { ptr, i64, i64, i8, ptr }
%struct.object_id = type { [32 x i8], i32 }
%struct.date_mode = type { i32, i32, ptr }
%struct.bundle_prerequisites_info = type { ptr, i32 }
%struct.pretty_print_context = type { i32, i32, ptr, i32, %struct.date_mode, i8, i32, i32, ptr, ptr, ptr, ptr, ptr, i32, ptr, i8, ptr, %struct.string_list, i32 }
%struct.commit = type { %struct.object, i64, ptr, ptr, i32 }
%struct.object = type { i32, %struct.object_id }

@strbuf_slopbuf = external global [0 x i8], align 1
@__const.write_bundle_prerequisites.buf = private unnamed_addr constant %struct.strbuf { i64 0, i64 0, ptr @strbuf_slopbuf }, align 8
@.str.38 = private unnamed_addr constant [5 x i8] c"-%s \00", align 1
@.str.39 = private unnamed_addr constant [11 x i8] c"./strbuf.h\00", align 1
@.str.40 = private unnamed_addr constant [30 x i8] c"strbuf_setlen() beyond buffer\00", align 1

; Function Attrs: inlinehint nounwind uwtable
define internal i64 @strbuf_avail(ptr noundef %0) #4 {
  %2 = alloca ptr, align 8
  store ptr %0, ptr %2, align 8, !tbaa !175
  %3 = load ptr, ptr %2, align 8, !tbaa !175
  %4 = getelementptr inbounds nuw %struct.strbuf, ptr %3, i32 0, i32 0
  %5 = load i64, ptr %4, align 8, !tbaa !177
  %6 = icmp ne i64 %5, 0
  br i1 %6, label %7, label %16

7:                                                ; preds = %1
  %8 = load ptr, ptr %2, align 8, !tbaa !175
  %9 = getelementptr inbounds nuw %struct.strbuf, ptr %8, i32 0, i32 0
  %10 = load i64, ptr %9, align 8, !tbaa !177
  %11 = load ptr, ptr %2, align 8, !tbaa !175
  %12 = getelementptr inbounds nuw %struct.strbuf, ptr %11, i32 0, i32 1
  %13 = load i64, ptr %12, align 8, !tbaa !23
  %14 = sub i64 %10, %13
  %15 = sub i64 %14, 1
  br label %17

16:                                               ; preds = %1
  br label %17

17:                                               ; preds = %16, %7
  %18 = phi i64 [ %15, %7 ], [ 0, %16 ]
  ret i64 %18
}

; Function Attrs: inlinehint nounwind uwtable
define internal void @strbuf_addch(ptr noundef %0, i32 noundef %1) #4 {
  %3 = alloca ptr, align 8
  %4 = alloca i32, align 4
  store ptr %0, ptr %3, align 8, !tbaa !175
  store i32 %1, ptr %4, align 4, !tbaa !9
  %5 = load ptr, ptr %3, align 8, !tbaa !175
  %6 = call i64 @strbuf_avail(ptr noundef %5)
  %7 = icmp ne i64 %6, 0
  br i1 %7, label %10, label %8

8:                                                ; preds = %2
  %9 = load ptr, ptr %3, align 8, !tbaa !175
  call void @strbuf_grow(ptr noundef %9, i64 noundef 1)
  br label %10

10:                                               ; preds = %8, %2
  %11 = load i32, ptr %4, align 4, !tbaa !9
  %12 = trunc i32 %11 to i8
  %13 = load ptr, ptr %3, align 8, !tbaa !175
  %14 = getelementptr inbounds nuw %struct.strbuf, ptr %13, i32 0, i32 2
  %15 = load ptr, ptr %14, align 8, !tbaa !13
  %16 = load ptr, ptr %3, align 8, !tbaa !175
  %17 = getelementptr inbounds nuw %struct.strbuf, ptr %16, i32 0, i32 1
  %18 = load i64, ptr %17, align 8, !tbaa !23
  %19 = add i64 %18, 1
  store i64 %19, ptr %17, align 8, !tbaa !23
  %20 = getelementptr inbounds nuw i8, ptr %15, i64 %18
  store i8 %12, ptr %20, align 1, !tbaa !24
  %21 = load ptr, ptr %3, align 8, !tbaa !175
  %22 = getelementptr inbounds nuw %struct.strbuf, ptr %21, i32 0, i32 2
  %23 = load ptr, ptr %22, align 8, !tbaa !13
  %24 = load ptr, ptr %3, align 8, !tbaa !175
  %25 = getelementptr inbounds nuw %struct.strbuf, ptr %24, i32 0, i32 1
  %26 = load i64, ptr %25, align 8, !tbaa !23
  %27 = getelementptr inbounds nuw i8, ptr %23, i64 %26
  store i8 0, ptr %27, align 1, !tbaa !24
  ret void
}

; Function Attrs: inlinehint nounwind uwtable
define internal void @strbuf_setlen(ptr noundef %0, i64 noundef %1) #4 {
  %3 = alloca ptr, align 8
  %4 = alloca i64, align 8
  store ptr %0, ptr %3, align 8, !tbaa !175
  store i64 %1, ptr %4, align 8, !tbaa !86
  %5 = load i64, ptr %4, align 8, !tbaa !86
  %6 = load ptr, ptr %3, align 8, !tbaa !175
  %7 = getelementptr inbounds nuw %struct.strbuf, ptr %6, i32 0, i32 0
  %8 = load i64, ptr %7, align 8, !tbaa !177
  %9 = icmp ne i64 %8, 0
  br i1 %9, label %10, label %15

10:                                               ; preds = %2
  %11 = load ptr, ptr %3, align 8, !tbaa !175
  %12 = getelementptr inbounds nuw %struct.strbuf, ptr %11, i32 0, i32 0
  %13 = load i64, ptr %12, align 8, !tbaa !177
  %14 = sub i64 %13, 1
  br label %16

15:                                               ; preds = %2
  br label %16

16:                                               ; preds = %15, %10
  %17 = phi i64 [ %14, %10 ], [ 0, %15 ]
  %18 = icmp ugt i64 %5, %17
  br i1 %18, label %19, label %20

19:                                               ; preds = %16
  call void (ptr, i32, ptr, ...) @BUG_fl(ptr noundef @.str.39, i32 noundef 167, ptr noundef @.str.40) #11
  unreachable

20:                                               ; preds = %16
  %21 = load i64, ptr %4, align 8, !tbaa !86
  %22 = load ptr, ptr %3, align 8, !tbaa !175
  %23 = getelementptr inbounds nuw %struct.strbuf, ptr %22, i32 0, i32 1
  store i64 %21, ptr %23, align 8, !tbaa !23
  %24 = load ptr, ptr %3, align 8, !tbaa !175
  %25 = getelementptr inbounds nuw %struct.strbuf, ptr %24, i32 0, i32 2
  %26 = load ptr, ptr %25, align 8, !tbaa !13
  %27 = icmp ne ptr %26, @strbuf_slopbuf
  br i1 %27, label %28, label %34

28:                                               ; preds = %20
  %29 = load ptr, ptr %3, align 8, !tbaa !175
  %30 = getelementptr inbounds nuw %struct.strbuf, ptr %29, i32 0, i32 2
  %31 = load ptr, ptr %30, align 8, !tbaa !13
  %32 = load i64, ptr %4, align 8, !tbaa !86
  %33 = getelementptr inbounds nuw i8, ptr %31, i64 %32
  store i8 0, ptr %33, align 1, !tbaa !24
  br label %35

34:                                               ; preds = %20
  br label %35

35:                                               ; preds = %34, %28
  ret void
}

; Function Attrs: nounwind uwtable
define internal void @write_bundle_prerequisites(ptr noundef %0, ptr noundef %1) #0 {
  %3 = alloca ptr, align 8
  %4 = alloca ptr, align 8
  %5 = alloca ptr, align 8
  %6 = alloca ptr, align 8
  %7 = alloca %struct.pretty_print_context, align 8
  %8 = alloca %struct.strbuf, align 8
  %9 = alloca i32, align 4
  store ptr %0, ptr %3, align 8, !tbaa !151
  store ptr %1, ptr %4, align 8, !tbaa !83
  call void @llvm.lifetime.start.p0(i64 8, ptr %5) #9
  %10 = load ptr, ptr %4, align 8, !tbaa !83
  store ptr %10, ptr %5, align 8, !tbaa !153
  call void @llvm.lifetime.start.p0(i64 8, ptr %6) #9
  call void @llvm.lifetime.start.p0(i64 176, ptr %7) #9
  call void @llvm.memset.p0.i64(ptr align 8 %7, i8 0, i64 176, i1 false)
  call void @llvm.lifetime.start.p0(i64 24, ptr %8) #9
  call void @llvm.memcpy.p0.p0.i64(ptr align 8 %8, ptr align 8 @__const.write_bundle_prerequisites.buf, i64 24, i1 false)
  %11 = load ptr, ptr %3, align 8, !tbaa !151
  %12 = getelementptr inbounds nuw %struct.commit, ptr %11, i32 0, i32 0
  %13 = load i32, ptr %12, align 8
  %14 = lshr i32 %13, 4
  %15 = and i32 %14, 32
  %16 = icmp ne i32 %15, 0
  br i1 %16, label %18, label %17

17:                                               ; preds = %2
  store i32 1, ptr %9, align 4
  br label %57

18:                                               ; preds = %2
  %19 = load ptr, ptr %3, align 8, !tbaa !151
  %20 = getelementptr inbounds nuw %struct.commit, ptr %19, i32 0, i32 0
  %21 = getelementptr inbounds nuw %struct.object, ptr %20, i32 0, i32 1
  %22 = call ptr @oid_to_hex(ptr noundef %21)
  call void (ptr, ptr, ...) @strbuf_addf(ptr noundef %8, ptr noundef @.str.38, ptr noundef %22)
  %23 = load ptr, ptr %5, align 8, !tbaa !153
  %24 = getelementptr inbounds nuw %struct.bundle_prerequisites_info, ptr %23, i32 0, i32 1
  %25 = load i32, ptr %24, align 8, !tbaa !143
  %26 = getelementptr inbounds nuw %struct.strbuf, ptr %8, i32 0, i32 2
  %27 = load ptr, ptr %26, align 8, !tbaa !13
  %28 = getelementptr inbounds nuw %struct.strbuf, ptr %8, i32 0, i32 1
  %29 = load i64, ptr %28, align 8, !tbaa !23
  call void @write_or_die(i32 noundef %25, ptr noundef %27, i64 noundef %29)
  %30 = getelementptr inbounds nuw %struct.pretty_print_context, ptr %7, i32 0, i32 0
  store i32 5, ptr %30, align 8, !tbaa !155
  %31 = call ptr @get_log_output_encoding()
  %32 = getelementptr inbounds nuw %struct.pretty_print_context, ptr %7, i32 0, i32 11
  store ptr %31, ptr %32, align 8, !tbaa !159
  call void @strbuf_setlen(ptr noundef %8, i64 noundef 0)
  %33 = load ptr, ptr %3, align 8, !tbaa !151
  call void @pretty_print_commit(ptr noundef %7, ptr noundef %33, ptr noundef %8)
  call void @strbuf_trim(ptr noundef %8)
  %34 = load ptr, ptr %3, align 8, !tbaa !151
  store ptr %34, ptr %6, align 8, !tbaa !77
  %35 = load ptr, ptr %6, align 8, !tbaa !77
  %36 = load i32, ptr %35, align 4
  %37 = lshr i32 %36, 4
  %38 = or i32 %37, 2
  %39 = load i32, ptr %35, align 4
  %40 = and i32 %38, 268435455
  %41 = shl i32 %40, 4
  %42 = and i32 %39, 15
  %43 = or i32 %42, %41
  store i32 %43, ptr %35, align 4
  %44 = load ptr, ptr %6, align 8, !tbaa !77
  %45 = getelementptr inbounds nuw %struct.strbuf, ptr %8, i32 0, i32 2
  %46 = load ptr, ptr %45, align 8, !tbaa !13
  %47 = load ptr, ptr %5, align 8, !tbaa !153
  %48 = getelementptr inbounds nuw %struct.bundle_prerequisites_info, ptr %47, i32 0, i32 0
  %49 = load ptr, ptr %48, align 8, !tbaa !146
  call void @add_object_array_with_path(ptr noundef %44, ptr noundef %46, ptr noundef %49, i32 noundef 12288, ptr noundef null)
  call void @strbuf_addch(ptr noundef %8, i32 noundef 10)
  %50 = load ptr, ptr %5, align 8, !tbaa !153
  %51 = getelementptr inbounds nuw %struct.bundle_prerequisites_info, ptr %50, i32 0, i32 1
  %52 = load i32, ptr %51, align 8, !tbaa !143
  %53 = getelementptr inbounds nuw %struct.strbuf, ptr %8, i32 0, i32 2
  %54 = load ptr, ptr %53, align 8, !tbaa !13
  %55 = getelementptr inbounds nuw %struct.strbuf, ptr %8, i32 0, i32 1
  %56 = load i64, ptr %55, align 8, !tbaa !23
  call void @write_or_die(i32 noundef %52, ptr noundef %54, i64 noundef %56)
  call void @strbuf_release(ptr noundef %8)
  store i32 0, ptr %9, align 4
  br label %57

57:                                               ; preds = %18, %17
  call void @llvm.lifetime.end.p0(i64 24, ptr %8) #9
  call void @llvm.lifetime.end.p0(i64 176, ptr %7) #9
  call void @llvm.lifetime.end.p0(i64 8, ptr %6) #9
  call void @llvm.lifetime.end.p0(i64 8, ptr %5) #9
  %58 = load i32, ptr %9, align 4
  switch i32 %58, label %60 [
    i32 0, label %59
    i32 1, label %59
  ]

59:                                               ; preds = %57, %57
  ret void

60:                                               ; preds = %57
  unreachable
}