; Function Attrs: nounwind uwtable
define internal void @write_bundle_prerequisites(ptr noundef %0, ptr noundef readonly captures(none) %1) #3 {
  %3 = alloca %struct.pretty_print_context, align 8
  %4 = alloca %struct.strbuf, align 8
  call void @llvm.lifetime.start.p0(i64 176, ptr nonnull %3) #15
  call void @llvm.memset.p0.i64(ptr noundef nonnull align 8 dereferenceable(176) %3, i8 0, i64 176, i1 false)
  call void @llvm.lifetime.start.p0(i64 24, ptr nonnull %4) #15
  call void @llvm.memcpy.p0.p0.i64(ptr noundef nonnull align 8 dereferenceable(24) %4, ptr noundef nonnull align 8 dereferenceable(24) @__const.write_bundle_prerequisites.buf, i64 24, i1 false)
  %5 = load i32, ptr %0, align 8
  %6 = and i32 %5, 512
  %.not = icmp eq i32 %6, 0
  br i1 %.not, label %35, label %7

7:                                                ; preds = %2
  %8 = getelementptr inbounds nuw i8, ptr %0, i64 4
  %9 = tail call ptr @oid_to_hex(ptr noundef nonnull %8) #15
  call void (ptr, ptr, ...) @strbuf_addf(ptr noundef nonnull %4, ptr noundef nonnull @.str.38, ptr noundef %9) #15
  %10 = getelementptr inbounds nuw i8, ptr %1, i64 8
  %11 = load i32, ptr %10, align 8, !tbaa !131
  %12 = getelementptr inbounds nuw i8, ptr %4, i64 16
  %13 = load ptr, ptr %12, align 8, !tbaa !4
  %14 = getelementptr inbounds nuw i8, ptr %4, i64 8
  %15 = load i64, ptr %14, align 8, !tbaa !29
  call void @write_or_die(i32 noundef %11, ptr noundef %13, i64 noundef %15) #15
  store i32 5, ptr %3, align 8, !tbaa !145
  %16 = call ptr @get_log_output_encoding() #15
  %17 = getelementptr inbounds nuw i8, ptr %3, i64 80
  store ptr %16, ptr %17, align 8, !tbaa !150
  store i64 0, ptr %14, align 8, !tbaa !29
  %18 = load ptr, ptr %12, align 8, !tbaa !4
  %.not9.i = icmp eq ptr %18, @strbuf_slopbuf
  br i1 %.not9.i, label %strbuf_setlen.exit, label %19

19:                                               ; preds = %7
  store i8 0, ptr %18, align 1, !tbaa !26
  br label %strbuf_setlen.exit

strbuf_setlen.exit:                               ; preds = %7, %19
  call void @pretty_print_commit(ptr noundef nonnull %3, ptr noundef nonnull %0, ptr noundef nonnull %4) #15
  call void @strbuf_trim(ptr noundef nonnull %4) #15
  %20 = load i32, ptr %0, align 4
  %21 = or i32 %20, 32
  store i32 %21, ptr %0, align 4
  %22 = load ptr, ptr %12, align 8, !tbaa !4
  %23 = load ptr, ptr %1, align 8, !tbaa !134
  call void @add_object_array_with_path(ptr noundef nonnull %0, ptr noundef %22, ptr noundef %23, i32 noundef 12288, ptr noundef null) #15
  %24 = load i64, ptr %4, align 8, !tbaa !151
  %.not.i.i = icmp eq i64 %24, 0
  br i1 %.not.i.i, label %strbuf_avail.exit.thread.i, label %strbuf_avail.exit.i

strbuf_avail.exit.i:                              ; preds = %strbuf_setlen.exit
  %25 = load i64, ptr %14, align 8, !tbaa !29
  %.neg.i = add i64 %25, 1
  %.not.i = icmp eq i64 %24, %.neg.i
  br i1 %.not.i, label %strbuf_avail.exit.thread.i, label %strbuf_addch.exit

strbuf_avail.exit.thread.i:                       ; preds = %strbuf_avail.exit.i, %strbuf_setlen.exit
  call void @strbuf_grow(ptr noundef nonnull %4, i64 noundef 1) #15
  %.pre.i = load i64, ptr %14, align 8, !tbaa !29
  %.pre7.i = add i64 %.pre.i, 1
  br label %strbuf_addch.exit

strbuf_addch.exit:                                ; preds = %strbuf_avail.exit.i, %strbuf_avail.exit.thread.i
  %.pre-phi.i = phi i64 [ %.pre7.i, %strbuf_avail.exit.thread.i ], [ %.neg.i, %strbuf_avail.exit.i ]
  %26 = phi i64 [ %.pre.i, %strbuf_avail.exit.thread.i ], [ %25, %strbuf_avail.exit.i ]
  %27 = load ptr, ptr %12, align 8, !tbaa !4
  store i64 %.pre-phi.i, ptr %14, align 8, !tbaa !29
  %28 = getelementptr inbounds nuw i8, ptr %27, i64 %26
  store i8 10, ptr %28, align 1, !tbaa !26
  %29 = load ptr, ptr %12, align 8, !tbaa !4
  %30 = load i64, ptr %14, align 8, !tbaa !29
  %31 = getelementptr inbounds nuw i8, ptr %29, i64 %30
  store i8 0, ptr %31, align 1, !tbaa !26
  %32 = load i32, ptr %10, align 8, !tbaa !131
  %33 = load ptr, ptr %12, align 8, !tbaa !4
  %34 = load i64, ptr %14, align 8, !tbaa !29
  call void @write_or_die(i32 noundef %32, ptr noundef %33, i64 noundef %34) #15
  call void @strbuf_release(ptr noundef nonnull %4) #15
  br label %35

35:                                               ; preds = %2, %strbuf_addch.exit
  call void @llvm.lifetime.end.p0(i64 24, ptr nonnull %4) #15
  call void @llvm.lifetime.end.p0(i64 176, ptr nonnull %3) #15
  ret void
}